target datalayout = "e-m:e-p270:32:32-p271:32:32-p272:64:64-i64:64-i128:128-f80:128-n8:16:32:64-S128"
target triple = "x86_64-pc-linux-gnu"

%struct.AVRational = type { i32, i32 }
%struct.AVFormatContext = type { ptr, ptr, ptr, ptr, ptr, i32, i32, ptr, i32, ptr, i32, ptr, ptr, i64, i64, i64, i32, i32, i32, i64, i64, ptr, i32, i32, ptr, i32, i32, i32, i32, ptr, i64, i32, i32, %struct.AVIOInterruptCB, i32, i32, i32, i32, i64, i32, i32, i32, i32, i32, i32, i32, i32, i32, i32, i32, i32, i64, i32, i32, i32, i32, i32, ptr, ptr, ptr, ptr, i32, ptr, ptr, ptr, ptr, i32, ptr, ptr, i64, ptr, ptr, ptr, i64 }
%struct.AVIOInterruptCB = type { ptr, ptr }
%struct.GXFContext = type { ptr, i32, i16, i16, i64, i32, i32, i32, i32, i16, i16, %struct.AVRational, i32, %struct.GXFStreamContext, ptr, i32, ptr, i32, i32, %struct.GXFTimecode }
%struct.GXFStreamContext = type { i64, i32, i32, i32, i16, i16, i32, i32, i32, i32, i32, i32, i32, i32, i32, i32 }
%struct.GXFTimecode = type { i32, i32, i32, i32, i32, i32 }
%struct.AVStream = type { ptr, i32, i32, ptr, ptr, %struct.AVRational, i64, i64, i64, i32, i32, %struct.AVRational, ptr, %struct.AVRational, %struct.AVPacket, i32, %struct.AVRational, i32 }
%struct.AVPacket = type { ptr, i64, i64, ptr, i32, i32, i32, ptr, i32, i64, i64, ptr, ptr, %struct.AVRational }
%struct.AVCodecParameters = type { i32, i32, i32, ptr, i32, ptr, i32, i32, i64, i32, i32, i32, i32, i32, i32, %struct.AVRational, %struct.AVRational, i32, i32, i32, i32, i32, i32, i32, %struct.AVChannelLayout, i32, i32, i32, i32, i32, i32 }
%struct.AVChannelLayout = type { i32, i32, %union.anon, ptr }
%union.anon = type { i64 }

; Function Attrs: nounwind uwtable
define internal i32 @gxf_compare_field_nb(ptr noundef %0, ptr noundef %1, ptr noundef %2) #0 {
  %4 = alloca ptr, align 8
  %5 = alloca ptr, align 8
  %6 = alloca ptr, align 8
  %7 = alloca ptr, align 8
  %8 = alloca [2 x ptr], align 16
  %9 = alloca i32, align 4
  %10 = alloca [2 x i32], align 4
  %11 = alloca [2 x ptr], align 16
  %12 = alloca ptr, align 8
  store ptr %0, ptr %4, align 8, !tbaa !4
  store ptr %1, ptr %5, align 8, !tbaa !91
  store ptr %2, ptr %6, align 8, !tbaa !91
  call void @llvm.lifetime.start.p0(i64 8, ptr %7) #10
  %13 = load ptr, ptr %4, align 8, !tbaa !4
  %14 = getelementptr inbounds nuw %struct.AVFormatContext, ptr %13, i32 0, i32 3
  %15 = load ptr, ptr %14, align 8, !tbaa !27
  store ptr %15, ptr %7, align 8, !tbaa !28
  call void @llvm.lifetime.start.p0(i64 16, ptr %8) #10
  %16 = load ptr, ptr %6, align 8, !tbaa !91
  store ptr %16, ptr %8, align 8, !tbaa !91
  %17 = getelementptr inbounds ptr, ptr %8, i64 1
  %18 = load ptr, ptr %5, align 8, !tbaa !91
  store ptr %18, ptr %17, align 8, !tbaa !91
  call void @llvm.lifetime.start.p0(i64 4, ptr %9) #10
  call void @llvm.lifetime.start.p0(i64 8, ptr %10) #10
  call void @llvm.lifetime.start.p0(i64 16, ptr %11) #10
  store i32 0, ptr %9, align 4, !tbaa !32
  br label %19

19:                                               ; preds = %87, %3
  %20 = load i32, ptr %9, align 4, !tbaa !32
  %21 = icmp slt i32 %20, 2
  br i1 %21, label %22, label %90

22:                                               ; preds = %19
  call void @llvm.lifetime.start.p0(i64 8, ptr %12) #10
  %23 = load ptr, ptr %4, align 8, !tbaa !4
  %24 = getelementptr inbounds nuw %struct.AVFormatContext, ptr %23, i32 0, i32 7
  %25 = load ptr, ptr %24, align 8, !tbaa !47
  %26 = load i32, ptr %9, align 4, !tbaa !32
  %27 = sext i32 %26 to i64
  %28 = getelementptr inbounds [2 x ptr], ptr %8, i64 0, i64 %27
  %29 = load ptr, ptr %28, align 8, !tbaa !91
  %30 = getelementptr inbounds nuw %struct.AVPacket, ptr %29, i32 0, i32 5
  %31 = load i32, ptr %30, align 4, !tbaa !93
  %32 = sext i32 %31 to i64
  %33 = getelementptr inbounds ptr, ptr %25, i64 %32
  %34 = load ptr, ptr %33, align 8, !tbaa !48
  store ptr %34, ptr %12, align 8, !tbaa !48
  %35 = load ptr, ptr %12, align 8, !tbaa !48
  %36 = getelementptr inbounds nuw %struct.AVStream, ptr %35, i32 0, i32 4
  %37 = load ptr, ptr %36, align 8, !tbaa !50
  %38 = load i32, ptr %9, align 4, !tbaa !32
  %39 = sext i32 %38 to i64
  %40 = getelementptr inbounds [2 x ptr], ptr %11, i64 0, i64 %39
  store ptr %37, ptr %40, align 8, !tbaa !30
  %41 = load ptr, ptr %12, align 8, !tbaa !48
  %42 = getelementptr inbounds nuw %struct.AVStream, ptr %41, i32 0, i32 3
  %43 = load ptr, ptr %42, align 8, !tbaa !56
  %44 = getelementptr inbounds nuw %struct.AVCodecParameters, ptr %43, i32 0, i32 0
  %45 = load i32, ptr %44, align 8, !tbaa !61
  %46 = icmp eq i32 %45, 1
  br i1 %46, label %47, label %75

47:                                               ; preds = %22
  %48 = load i32, ptr %9, align 4, !tbaa !32
  %49 = sext i32 %48 to i64
  %50 = getelementptr inbounds [2 x ptr], ptr %8, i64 0, i64 %49
  %51 = load ptr, ptr %50, align 8, !tbaa !91
  %52 = getelementptr inbounds nuw %struct.AVPacket, ptr %51, i32 0, i32 2
  %53 = load i64, ptr %52, align 8, !tbaa !104
  %54 = load ptr, ptr %7, align 8, !tbaa !28
  %55 = getelementptr inbounds nuw %struct.GXFContext, ptr %54, i32 0, i32 11
  %56 = getelementptr inbounds nuw %struct.AVRational, ptr %55, i32 0, i32 1
  %57 = load i32, ptr %56, align 4, !tbaa !77
  %58 = sext i32 %57 to i64
  %59 = load ptr, ptr %7, align 8, !tbaa !28
  %60 = getelementptr inbounds nuw %struct.GXFContext, ptr %59, i32 0, i32 11
  %61 = getelementptr inbounds nuw %struct.AVRational, ptr %60, i32 0, i32 0
  %62 = load i32, ptr %61, align 4, !tbaa !76
  %63 = sext i32 %62 to i64
  %64 = mul nsw i64 48000, %63
  %65 = call i64 @av_rescale_rnd(i64 noundef %53, i64 noundef %58, i64 noundef %64, i32 noundef 3) #13
  %66 = trunc i64 %65 to i32
  %67 = load i32, ptr %9, align 4, !tbaa !32
  %68 = sext i32 %67 to i64
  %69 = getelementptr inbounds [2 x i32], ptr %10, i64 0, i64 %68
  store i32 %66, ptr %69, align 4, !tbaa !32
  %70 = load i32, ptr %9, align 4, !tbaa !32
  %71 = sext i32 %70 to i64
  %72 = getelementptr inbounds [2 x i32], ptr %10, i64 0, i64 %71
  %73 = load i32, ptr %72, align 4, !tbaa !32
  %74 = and i32 %73, -2
  store i32 %74, ptr %72, align 4, !tbaa !32
  br label %86

75:                                               ; preds = %22
  %76 = load i32, ptr %9, align 4, !tbaa !32
  %77 = sext i32 %76 to i64
  %78 = getelementptr inbounds [2 x ptr], ptr %8, i64 0, i64 %77
  %79 = load ptr, ptr %78, align 8, !tbaa !91
  %80 = getelementptr inbounds nuw %struct.AVPacket, ptr %79, i32 0, i32 2
  %81 = load i64, ptr %80, align 8, !tbaa !104
  %82 = trunc i64 %81 to i32
  %83 = load i32, ptr %9, align 4, !tbaa !32
  %84 = sext i32 %83 to i64
  %85 = getelementptr inbounds [2 x i32], ptr %10, i64 0, i64 %84
  store i32 %82, ptr %85, align 4, !tbaa !32
  br label %86

86:                                               ; preds = %75, %47
  call void @llvm.lifetime.end.p0(i64 8, ptr %12) #10
  br label %87

87:                                               ; preds = %86
  %88 = load i32, ptr %9, align 4, !tbaa !32
  %89 = add nsw i32 %88, 1
  store i32 %89, ptr %9, align 4, !tbaa !32
  br label %19, !llvm.loop !142

90:                                               ; preds = %19
  %91 = getelementptr inbounds [2 x i32], ptr %10, i64 0, i64 1
  %92 = load i32, ptr %91, align 4, !tbaa !32
  %93 = getelementptr inbounds [2 x i32], ptr %10, i64 0, i64 0
  %94 = load i32, ptr %93, align 4, !tbaa !32
  %95 = icmp sgt i32 %92, %94
  br i1 %95, label %114, label %96

96:                                               ; preds = %90
  %97 = getelementptr inbounds [2 x i32], ptr %10, i64 0, i64 1
  %98 = load i32, ptr %97, align 4, !tbaa !32
  %99 = getelementptr inbounds [2 x i32], ptr %10, i64 0, i64 0
  %100 = load i32, ptr %99, align 4, !tbaa !32
  %101 = icmp eq i32 %98, %100
  br i1 %101, label %102, label %112

102:                                              ; preds = %96
  %103 = getelementptr inbounds [2 x ptr], ptr %11, i64 0, i64 1
  %104 = load ptr, ptr %103, align 8, !tbaa !30
  %105 = getelementptr inbounds nuw %struct.GXFStreamContext, ptr %104, i32 0, i32 15
  %106 = load i32, ptr %105, align 4, !tbaa !85
  %107 = getelementptr inbounds [2 x ptr], ptr %11, i64 0, i64 0
  %108 = load ptr, ptr %107, align 16, !tbaa !30
  %109 = getelementptr inbounds nuw %struct.GXFStreamContext, ptr %108, i32 0, i32 15
  %110 = load i32, ptr %109, align 4, !tbaa !85
  %111 = icmp ugt i32 %106, %110
  br label %112

112:                                              ; preds = %102, %96
  %113 = phi i1 [ false, %96 ], [ %111, %102 ]
  br label %114

114:                                              ; preds = %112, %90
  %115 = phi i1 [ true, %90 ], [ %113, %112 ]
  %116 = zext i1 %115 to i32
  call void @llvm.lifetime.end.p0(i64 16, ptr %11) #10
  call void @llvm.lifetime.end.p0(i64 8, ptr %10) #10
  call void @llvm.lifetime.end.p0(i64 4, ptr %9) #10
  call void @llvm.lifetime.end.p0(i64 16, ptr %8) #10
  call void @llvm.lifetime.end.p0(i64 8, ptr %7) #10
  ret i32 %116
}