; Function Attrs: nofree nosync nounwind memory(read, inaccessiblemem: none) uwtable
define internal range(i32 0, 2) i32 @gxf_compare_field_nb(ptr noundef readonly captures(none) %0, ptr noundef %1, ptr noundef %2) #8 {
  %.sroa.023 = alloca i32, align 4
  %.sroa.424 = alloca i32, align 4
  %.sroa.0 = alloca ptr, align 16
  %.sroa.4 = alloca ptr, align 8
  %4 = getelementptr inbounds nuw i8, ptr %0, i64 24
  %5 = load ptr, ptr %4, align 8, !tbaa !24
  call void @llvm.lifetime.start.p0(i64 4, ptr nonnull %.sroa.023)
  call void @llvm.lifetime.start.p0(i64 4, ptr nonnull %.sroa.424)
  call void @llvm.lifetime.start.p0(i64 8, ptr nonnull %.sroa.0)
  call void @llvm.lifetime.start.p0(i64 8, ptr nonnull %.sroa.4)
  %6 = getelementptr inbounds nuw i8, ptr %0, i64 48
  %7 = load ptr, ptr %6, align 8, !tbaa !37
  %8 = getelementptr inbounds nuw i8, ptr %5, i64 44
  %9 = getelementptr inbounds nuw i8, ptr %5, i64 48
  br label %10

10:                                               ; preds = %3, %36
  %11 = phi i1 [ true, %3 ], [ false, %36 ]
  %indvars.iv.sroa.phi = phi ptr [ %.sroa.0, %3 ], [ %.sroa.4, %36 ]
  %indvars.iv.sroa.phi21 = phi ptr [ %.sroa.023, %3 ], [ %.sroa.424, %36 ]
  %indvars.iv.sroa.phi25.sroa.speculated = phi ptr [ %2, %3 ], [ %1, %36 ]
  %12 = getelementptr inbounds nuw i8, ptr %indvars.iv.sroa.phi25.sroa.speculated, i64 36
  %13 = load i32, ptr %12, align 4, !tbaa !86
  %14 = sext i32 %13 to i64
  %15 = getelementptr inbounds ptr, ptr %7, i64 %14
  %16 = load ptr, ptr %15, align 8, !tbaa !38
  %17 = getelementptr inbounds nuw i8, ptr %16, i64 24
  %18 = load ptr, ptr %17, align 8, !tbaa !40
  store ptr %18, ptr %indvars.iv.sroa.phi, align 8, !tbaa !123
  %19 = getelementptr inbounds nuw i8, ptr %16, i64 16
  %20 = load ptr, ptr %19, align 8, !tbaa !46
  %21 = load i32, ptr %20, align 8, !tbaa !51
  %22 = icmp eq i32 %21, 1
  %23 = getelementptr inbounds nuw i8, ptr %indvars.iv.sroa.phi25.sroa.speculated, i64 16
  %24 = load i64, ptr %23, align 8, !tbaa !89
  br i1 %22, label %25, label %34

25:                                               ; preds = %10
  %26 = load i32, ptr %9, align 4, !tbaa !65
  %27 = sext i32 %26 to i64
  %28 = load i32, ptr %8, align 4, !tbaa !64
  %29 = sext i32 %28 to i64
  %30 = mul nsw i64 %29, 48000
  %31 = tail call i64 @av_rescale_rnd(i64 noundef %24, i64 noundef %27, i64 noundef %30, i32 noundef 3) #11
  %32 = trunc i64 %31 to i32
  %33 = and i32 %32, -2
  br label %36

34:                                               ; preds = %10
  %35 = trunc i64 %24 to i32
  br label %36

36:                                               ; preds = %34, %25
  %.sink = phi i32 [ %33, %25 ], [ %35, %34 ]
  store i32 %.sink, ptr %indvars.iv.sroa.phi21, align 4, !tbaa !62
  br i1 %11, label %10, label %37, !llvm.loop !125

37:                                               ; preds = %36
  %.sroa.424.0..sroa.424.4. = load i32, ptr %.sroa.424, align 4, !tbaa !62
  %.sroa.023.0..sroa.023.0. = load i32, ptr %.sroa.023, align 4, !tbaa !62
  %38 = icmp sgt i32 %.sroa.424.0..sroa.424.4., %.sroa.023.0..sroa.023.0.
  br i1 %38, label %48, label %39

39:                                               ; preds = %37
  %40 = icmp eq i32 %.sroa.424.0..sroa.424.4., %.sroa.023.0..sroa.023.0.
  br i1 %40, label %41, label %48

41:                                               ; preds = %39
  %.sroa.4.0..sroa.4.8. = load ptr, ptr %.sroa.4, align 8, !tbaa !123
  %42 = getelementptr inbounds nuw i8, ptr %.sroa.4.0..sroa.4.8., i64 60
  %43 = load i32, ptr %42, align 4, !tbaa !78
  %.sroa.0.0..sroa.0.0. = load ptr, ptr %.sroa.0, align 16, !tbaa !123
  %44 = getelementptr inbounds nuw i8, ptr %.sroa.0.0..sroa.0.0., i64 60
  %45 = load i32, ptr %44, align 4, !tbaa !78
  %46 = icmp ugt i32 %43, %45
  %47 = zext i1 %46 to i32
  br label %48

48:                                               ; preds = %39, %41, %37
  %49 = phi i32 [ 1, %37 ], [ 0, %39 ], [ %47, %41 ]
  call void @llvm.lifetime.end.p0(i64 8, ptr nonnull %.sroa.0)
  call void @llvm.lifetime.end.p0(i64 8, ptr nonnull %.sroa.4)
  call void @llvm.lifetime.end.p0(i64 4, ptr nonnull %.sroa.023)
  call void @llvm.lifetime.end.p0(i64 4, ptr nonnull %.sroa.424)
  ret i32 %49
}